(lp0
S'id'
p1
aS'basic_firewall_protection'
p2
aS'connected_directly_to_school_library_or_nif'
p3
aS'connection_supports_school_library_or_nif'
p4
aS'lease_or_non_purchase_agreement'
p5
aS'monthly_recurring_unit_costs'
p6
aS'monthly_recurring_unit_ineligible_costs'
p7
aS'monthly_recurring_unit_eligible_costs'
p8
aS'monthly_quantity'
p9
aS'total_monthly_eligible_recurring_costs'
p10
aS'months_of_service'
p11
aS'total_eligible_recurring_costs'
p12
aS'one_time_unit_costs'
p13
aS'one_time_ineligible_unit_costs'
p14
aS'one_time_eligible_unit_costs'
p15
aS'one_time_quantity'
p16
aS'total_eligible_one_time_costs'
p17
aS'pre_discount_extended_eligible_line_item_cost'
p18
aS'total_pre_discount_charges'
p19
aS'based_on_state_master_contract'
p20
aS'discount_rate'
p21
aS'total_monthly_recurring_charges'
p22
aS'pricing_confidentiality'
p23
aS'based_on_multiple_award_schedule'
p24
aS'total_ineligible_one_time_charges'
p25
aS'funding_commitment_request'
p26
aS'total_number_of_months_of_service'
p27
aS'was_fcc_form470_posted'
p28
aS'total_one_time_charges'
p29
aS'total_monthly_eligible_charges'
p30
aS'includes_voluntary_extensions'
p31
aS'num_bids_received'
p32
aS'cl_connect_category'
p33
aS'has_na_fill'
p34
aS'dmy_isp'
p35
aS'dmy_fiber'
p36
aS'dmy_cable'
p37
aS'dmy_dsl'
p38
aS'dmy_lit fiber'
p39
aS'dmy_dark fiber'
p40
aS'dmy_copper'
p41
aS'dmy_wan'
p42
aS'dmy_t3'
p43
aS'dmy_t1'
p44
aS'dmy_wireless'
p45
aS'dmy_microwave'
p46
aS'std_upload_spd'
p47
aS'std_download_spd'
p48
aS'dmy_AT&T'
p49
aS'dmy_Comcast'
p50
aS'dmy_CenturyLink'
p51
aS'dmy_Time Warner Cable Business LLC'
p52
aS'dmy_Charter'
p53
aS'dmy_Cox'
p54
aS'dmy_Windstream'
p55
aS'dmy_ENA Services, LLC'
p56
aS'dmy_Verizon'
p57
aS'dmy_Cablevision'
p58
aS'dmy_Time Warner Cable'
p59
aS'dmy_Frontier'
p60
aS'dmy_State of Iowa'
p61
aS'dmy_Computer Sciences'
p62
aS'dmy_OneNet'
p63
aS'dmy_WiscNet'
p64
aS'dmy_Sunesys, LLC'
p65
aS'dmy_Illinois Century'
p66
aS'dmy_Bright House Net'
p67
aS'dmy_Unite Private'
p68
aS'dmy_Fiber Optic LLC'
p69
aS'dmy_Dept of Admin Services, CT'
p70
aS'dmy_PenTeleData Limited'
p71
aS'dmy_MCC Telephony'
p72
aS'dmy_Zayo Group, LLC'
p73
aS'dmy_NEVESEM'
p74
aS'dmy_E. Ritter'
p75
aS'dmy_TelePacific'
p76
aS'purp_UNKNOWN'
p77
aS'purp_backbone'
p78
aS'purp_data_connect_2ormore'
p79
aS'purp_data_connect_hub'
p80
aS'purp_ias_includes_connection'
p81
aS'purp_ias_no_circuit'
p82
aS'fnct_copper'
p83
aS'fnct_fiber'
p84
aS'fnct_fiber_mat_ops'
p85
aS'fnct_other'
p86
aS'fnct_wireless'
p87
aS'top_ATM'
p88
aS'top_Broadband Over Power Lines'
p89
aS'top_Cable Modem'
p90
aS'top_DS-1'
p91
aS'top_DS-3'
p92
aS'top_DS-4'
p93
aS'top_Dark Fiber (No Special Construction)'
p94
aS'top_Dark Fiber IRU (No Special Construction)'
p95
aS'top_Data plan for portable device'
p96
aS'top_Digital Subscriber Line (DSL)'
p97
aS'top_Ethernet'
p98
aS'top_Fractional T-1'
p99
aS'top_Frame Relay'
p100
aS'top_ISDN-BRI'
p101
aS'top_MPLS'
p102
aS'top_Microwave'
p103
aS'top_OC-1'
p104
aS'top_OC-12'
p105
aS'top_OC-192'
p106
aS'top_OC-24'
p107
aS'top_OC-256'
p108
aS'top_OC-3'
p109
aS'top_OC-48'
p110
aS'top_OC-N (TDM Fiber)'
p111
aS'top_Other'
p112
aS'top_Radio Loop'
p113
aS'top_Satellite Service'
p114
aS'top_Switched Multimegabit Data Service'
p115
aS'top_T-1'
p116
aS'top_T-3'
p117
aS'top_UNKNOWN'
p118
aS'top_Wireless data service'
p119
aS'cub_All buildings/sites listed'
p120
aS'cub_Multiple buildings/sites listed'
p121
aS'cub_One building/site listed'
p122
aS'cub_UNKNOWN'
p123
aS'st_AK'
p124
aS'st_AL'
p125
aS'st_AR'
p126
aS'st_AS'
p127
aS'st_AZ'
p128
aS'st_CA'
p129
aS'st_CO'
p130
aS'st_CT'
p131
aS'st_DC'
p132
aS'st_DE'
p133
aS'st_FL'
p134
aS'st_GA'
p135
aS'st_GU'
p136
aS'st_HI'
p137
aS'st_IA'
p138
aS'st_ID'
p139
aS'st_IL'
p140
aS'st_IN'
p141
aS'st_KS'
p142
aS'st_KY'
p143
aS'st_LA'
p144
aS'st_MA'
p145
aS'st_MD'
p146
aS'st_ME'
p147
aS'st_MI'
p148
aS'st_MN'
p149
aS'st_MO'
p150
aS'st_MP'
p151
aS'st_MS'
p152
aS'st_MT'
p153
aS'st_NC'
p154
aS'st_ND'
p155
aS'st_NE'
p156
aS'st_NH'
p157
aS'st_NJ'
p158
aS'st_NM'
p159
aS'st_NV'
p160
aS'st_NY'
p161
aS'st_OH'
p162
aS'st_OK'
p163
aS'st_OR'
p164
aS'st_PA'
p165
aS'st_PR'
p166
aS'st_RI'
p167
aS'st_SC'
p168
aS'st_SD'
p169
aS'st_TN'
p170
aS'st_TX'
p171
aS'st_UT'
p172
aS'st_VA'
p173
aS'st_VI'
p174
aS'st_VT'
p175
aS'st_WA'
p176
aS'st_WI'
p177
aS'st_WV'
p178
aS'st_WY'
p179
a.