(lp0
S'id'
p1
aS'postal_cd'
p2
aS'function'
p3
aS'type_of_product'
p4
aS'purpose'
p5
aS'upload_speed'
p6
aS'upload_speed_units'
p7
aS'download_speed'
p8
aS'download_speed_units'
p9
aS'basic_firewall_protection'
p10
aS'connected_directly_to_school_library_or_nif'
p11
aS'connection_supports_school_library_or_nif'
p12
aS'connection_used_by'
p13
aS'lease_or_non_purchase_agreement'
p14
aS'monthly_recurring_unit_costs'
p15
aS'monthly_recurring_unit_ineligible_costs'
p16
aS'monthly_recurring_unit_eligible_costs'
p17
aS'monthly_quantity'
p18
aS'total_monthly_eligible_recurring_costs'
p19
aS'months_of_service'
p20
aS'total_eligible_recurring_costs'
p21
aS'one_time_unit_costs'
p22
aS'one_time_ineligible_unit_costs'
p23
aS'one_time_eligible_unit_costs'
p24
aS'one_time_quantity'
p25
aS'total_eligible_one_time_costs'
p26
aS'pre_discount_extended_eligible_line_item_cost'
p27
aS'total_pre_discount_charges'
p28
aS'based_on_state_master_contract'
p29
aS'discount_rate'
p30
aS'total_monthly_recurring_charges'
p31
aS'service_provider_number'
p32
aS'pricing_confidentiality'
p33
aS'based_on_multiple_award_schedule'
p34
aS'total_ineligible_one_time_charges'
p35
aS'funding_commitment_request'
p36
aS'total_number_of_months_of_service'
p37
aS'was_fcc_form470_posted'
p38
aS'total_one_time_charges'
p39
aS'total_monthly_eligible_charges'
p40
aS'includes_voluntary_extensions'
p41
aS'num_bids_received'
p42
aS'reporting_name'
p43
aS'dmy_isp'
p44
aS'dmy_fiber'
p45
aS'dmy_cable'
p46
aS'dmy_dsl'
p47
aS'dmy_lit fiber'
p48
aS'dmy_dark fiber'
p49
aS'dmy_copper'
p50
aS'dmy_wan'
p51
aS'dmy_t3'
p52
aS'dmy_t1'
p53
aS'dmy_wireless'
p54
aS'dmy_microwave'
p55
a.