(lp0
S'frn_complete'
p1
aS'service_provider_id'
p2
aS'connect_type'
p3
aS'connect_category'
p4
aS'purpose'
p5
aS'bandwidth_in_mbps'
p6
aS'num_lines'
p7
aS'total_cost'
p8
aS'one_time_elig_cost'
p9
aS'rec_elig_cost'
p10
aS'months_of_service'
p11
aS'num_open_flags'
p12
aS'consortium_shared'
p13
aS'isp_conditions_met'
p14
aS'upstream_conditions_met'
p15
aS'internet_conditions_met'
p16
aS'wan_conditions_met'
p17
aS'upload_bandwidth_in_mbps'
p18
aS'backbone_conditions_met'
p19
aS'function'
p20
aS'total_pre_discount_charges'
p21
aS'based_on_state_master_contract'
p22
aS'discount_rate'
p23
aS'total_monthly_recurring_charges'
p24
aS'service_provider_number'
p25
aS'pricing_confidentiality'
p26
aS'based_on_multiple_award_schedule'
p27
aS'total_ineligible_one_time_charges'
p28
aS'funding_commitment_request'
p29
aS'total_number_of_months_of_service'
p30
aS'postal_cd'
p31
aS'was_fcc_form470_posted'
p32
aS'total_one_time_charges'
p33
aS'total_monthly_eligible_charges'
p34
aS'includes_voluntary_extensions'
p35
aS'num_bids_received'
p36
aS'reporting_name'
p37
aS'flag_unknown_conn_type'
p38
aS'flag_unknown_quantity'
p39
aS'flag_product_bandwidth'
p40
aS'flag_not_upstream'
p41
aS'flag_not_isp'
p42
aS'flag_not_bundled_ia'
p43
aS'flag_not_wan'
p44
aS'flag_fiber_maintenance'
p45
aS'flag_flipped_speed'
p46
aS'flag_special_construction'
p47
aS'flag_not_broadband'
p48
aS'dmy_isp'
p49
aS'dmy_fiber'
p50
aS'dmy_cable'
p51
aS'dmy_dsl'
p52
aS'dmy_lit fiber'
p53
aS'dmy_dark fiber'
p54
aS'dmy_copper'
p55
aS'dmy_wan'
p56
aS'dmy_t3'
p57
aS'dmy_t1'
p58
aS'dmy_wireless'
p59
aS'dmy_microwave'
p60
a.