(lp0
S'bandwidth_in_mbps'
p1
aS'num_lines'
p2
aS'total_cost'
p3
aS'one_time_elig_cost'
p4
aS'rec_elig_cost'
p5
aS'months_of_service'
p6
aS'consortium_shared'
p7
aS'isp_conditions_met'
p8
aS'upstream_conditions_met'
p9
aS'internet_conditions_met'
p10
aS'wan_conditions_met'
p11
aS'upload_bandwidth_in_mbps'
p12
aS'backbone_conditions_met'
p13
aS'total_pre_discount_charges'
p14
aS'discount_rate'
p15
aS'total_monthly_recurring_charges'
p16
aS'total_ineligible_one_time_charges'
p17
aS'funding_commitment_request'
p18
aS'total_number_of_months_of_service'
p19
aS'total_one_time_charges'
p20
aS'total_monthly_eligible_charges'
p21
aS'num_bids_received'
p22
aS'flag_unknown_conn_type'
p23
aS'flag_unknown_quantity'
p24
aS'flag_product_bandwidth'
p25
aS'flag_not_upstream'
p26
aS'flag_not_isp'
p27
aS'flag_not_bundled_ia'
p28
aS'flag_not_wan'
p29
aS'flag_fiber_maintenance'
p30
aS'flag_flipped_speed'
p31
aS'flag_special_construction'
p32
aS'flag_not_broadband'
p33
aS'dmy_isp'
p34
aS'dmy_fiber'
p35
aS'dmy_cable'
p36
aS'dmy_dsl'
p37
aS'dmy_lit fiber'
p38
aS'dmy_dark fiber'
p39
aS'dmy_copper'
p40
aS'dmy_wan'
p41
aS'dmy_t3'
p42
aS'dmy_t1'
p43
aS'dmy_wireless'
p44
aS'dmy_microwave'
p45
aS'dmy_AT&T'
p46
aS'dmy_Comcast'
p47
aS'dmy_CenturyLink'
p48
aS'dmy_Time Warner Cable Business LLC'
p49
aS'dmy_Charter'
p50
aS'dmy_Cox'
p51
aS'dmy_ENA Services, LLC'
p52
aS'dmy_Windstream'
p53
aS'dmy_Verizon'
p54
aS'dmy_Cablevision'
p55
aS'dmy_Time Warner Cable'
p56
aS'dmy_Frontier'
p57
aS'dmy_State of Iowa'
p58
aS'dmy_Computer Sciences'
p59
aS'dmy_OneNet'
p60
aS'dmy_Sunesys, LLC'
p61
aS'dmy_WiscNet'
p62
aS'dmy_Illinois Century'
p63
aS'dmy_Bright House Net'
p64
aS'dmy_Unite Private'
p65
aS'dmy_Fiber Optic LLC'
p66
aS'dmy_MCC Telephony'
p67
aS'dmy_PenTeleData Limited'
p68
aS'dmy_E. Ritter'
p69
aS'dmy_TelePacific'
p70
aS'dmy_Zayo Group, LLC'
p71
aS'dmy_NEVESEM'
p72
aS'purp_UNKNOWN'
p73
aS'purp_backbone'
p74
aS'purp_data_connect_2ormore'
p75
aS'purp_data_connect_hub'
p76
aS'purp_ias_includes_connection'
p77
aS'purp_ias_no_circuit'
p78
aS'fnct_copper'
p79
aS'fnct_fiber'
p80
aS'fnct_fiber_mat_ops'
p81
aS'fnct_other'
p82
aS'fnct_wireless'
p83
aS'conntyp_ATM'
p84
aS'conntyp_Broadband Over Power Lines'
p85
aS'conntyp_Cable Modem'
p86
aS'conntyp_DS-1'
p87
aS'conntyp_DS-3'
p88
aS'conntyp_DS-4'
p89
aS'conntyp_Dark Fiber (No Special Construction)'
p90
aS'conntyp_Dark Fiber IRU (No Special Construction)'
p91
aS'conntyp_Data plan for portable device'
p92
aS'conntyp_Digital Subscriber Line (DSL)'
p93
aS'conntyp_Ethernet'
p94
aS'conntyp_Fractional T-1'
p95
aS'conntyp_Frame Relay'
p96
aS'conntyp_ISDN-BRI'
p97
aS'conntyp_MPLS'
p98
aS'conntyp_Microwave'
p99
aS'conntyp_OC-1'
p100
aS'conntyp_OC-12'
p101
aS'conntyp_OC-192'
p102
aS'conntyp_OC-24'
p103
aS'conntyp_OC-256'
p104
aS'conntyp_OC-3'
p105
aS'conntyp_OC-48'
p106
aS'conntyp_OC-N (TDM Fiber)'
p107
aS'conntyp_Other'
p108
aS'conntyp_Radio Loop'
p109
aS'conntyp_Satellite Service'
p110
aS'conntyp_Switched Multimegabit Data Service'
p111
aS'conntyp_T-1'
p112
aS'conntyp_T-3'
p113
aS'conntyp_UNKNOWN'
p114
aS'conntyp_Wireless data service'
p115
aS'conncat_Cable'
p116
aS'conncat_DSL'
p117
aS'conncat_Dark Fiber'
p118
aS'conncat_Fixed Wireless'
p119
aS'conncat_ISP Only'
p120
aS'conncat_Lit Fiber'
p121
aS'conncat_Other Copper'
p122
aS'conncat_Satellite/LTE'
p123
aS'conncat_T-1'
p124
aS'conncat_Uncategorized'
p125
aS'st_AK'
p126
aS'st_AL'
p127
aS'st_AR'
p128
aS'st_AS'
p129
aS'st_AZ'
p130
aS'st_CA'
p131
aS'st_CO'
p132
aS'st_CT'
p133
aS'st_DC'
p134
aS'st_DE'
p135
aS'st_FL'
p136
aS'st_GA'
p137
aS'st_GU'
p138
aS'st_HI'
p139
aS'st_IA'
p140
aS'st_ID'
p141
aS'st_IL'
p142
aS'st_IN'
p143
aS'st_KS'
p144
aS'st_KY'
p145
aS'st_LA'
p146
aS'st_MA'
p147
aS'st_MD'
p148
aS'st_ME'
p149
aS'st_MI'
p150
aS'st_MN'
p151
aS'st_MO'
p152
aS'st_MP'
p153
aS'st_MS'
p154
aS'st_MT'
p155
aS'st_NC'
p156
aS'st_ND'
p157
aS'st_NE'
p158
aS'st_NH'
p159
aS'st_NJ'
p160
aS'st_NM'
p161
aS'st_NV'
p162
aS'st_NY'
p163
aS'st_OH'
p164
aS'st_OK'
p165
aS'st_OR'
p166
aS'st_PA'
p167
aS'st_PR'
p168
aS'st_RI'
p169
aS'st_SC'
p170
aS'st_SD'
p171
aS'st_TN'
p172
aS'st_TX'
p173
aS'st_UT'
p174
aS'st_VA'
p175
aS'st_VI'
p176
aS'st_VT'
p177
aS'st_WA'
p178
aS'st_WI'
p179
aS'st_WV'
p180
aS'st_WY'
p181
a.